; ModuleID = '19/1667.c'
source_filename = "19/1667.c"
target datalayout = "e-m:e-p270:32:32-p271:32:32-p272:64:64-i64:64-f80:128-n8:16:32:64-S128"
target triple = "x86_64-pc-linux-gnu"

@.str = private unnamed_addr constant [3 x i8] c"%s\00", align 1
@.str.1 = private unnamed_addr constant [2 x i8] zeroinitializer, align 1
@.str.2 = private unnamed_addr constant [2 x i8] c" \00", align 1

; Function Attrs: noinline nounwind uwtable
define dso_local i32 @main() #0 {
  %1 = alloca i32, align 4
  %2 = alloca [100 x i8], align 16
  %3 = alloca [100 x i8], align 16
  %4 = alloca [100 x i8], align 16
  %5 = alloca [100 x i8], align 16
  %6 = alloca i32, align 4
  %7 = alloca i32, align 4
  store i32 0, i32* %1, align 4
  %8 = getelementptr inbounds [100 x i8], [100 x i8]* %2, i64 0, i64 0
  %9 = call i32 (i8*, ...) bitcast (i32 (...)* @gets to i32 (i8*, ...)*)(i8* %8)
  %10 = getelementptr inbounds [100 x i8], [100 x i8]* %3, i64 0, i64 0
  %11 = call i32 (i8*, ...) bitcast (i32 (...)* @gets to i32 (i8*, ...)*)(i8* %10)
  %12 = getelementptr inbounds [100 x i8], [100 x i8]* %4, i64 0, i64 0
  %13 = call i32 (i8*, ...) bitcast (i32 (...)* @gets to i32 (i8*, ...)*)(i8* %12)
  store i32 0, i32* %6, align 4
  br label %14

14:                                               ; preds = %72, %0
  %15 = load i32, i32* %6, align 4
  %16 = sext i32 %15 to i64
  %17 = getelementptr inbounds [100 x i8], [100 x i8]* %2, i64 0, i64 0
  %18 = call i64 @strlen(i8* %17) #3
  %19 = icmp ult i64 %16, %18
  br i1 %19, label %20, label %75

20:                                               ; preds = %14
  store i32 0, i32* %7, align 4
  br label %21

21:                                               ; preds = %37, %20
  %22 = load i32, i32* %6, align 4
  %23 = sext i32 %22 to i64
  %24 = getelementptr inbounds [100 x i8], [100 x i8]* %2, i64 0, i64 %23
  %25 = load i8, i8* %24, align 1
  %26 = sext i8 %25 to i32
  %27 = icmp ne i32 %26, 32
  br i1 %27, label %28, label %35

28:                                               ; preds = %21
  %29 = load i32, i32* %6, align 4
  %30 = sext i32 %29 to i64
  %31 = getelementptr inbounds [100 x i8], [100 x i8]* %2, i64 0, i64 %30
  %32 = load i8, i8* %31, align 1
  %33 = sext i8 %32 to i32
  %34 = icmp ne i32 %33, 0
  br label %35

35:                                               ; preds = %28, %21
  %36 = phi i1 [ false, %21 ], [ %34, %28 ]
  br i1 %36, label %37, label %47

37:                                               ; preds = %35
  %38 = load i32, i32* %6, align 4
  %39 = add nsw i32 %38, 1
  store i32 %39, i32* %6, align 4
  %40 = sext i32 %38 to i64
  %41 = getelementptr inbounds [100 x i8], [100 x i8]* %2, i64 0, i64 %40
  %42 = load i8, i8* %41, align 1
  %43 = load i32, i32* %7, align 4
  %44 = add nsw i32 %43, 1
  store i32 %44, i32* %7, align 4
  %45 = sext i32 %43 to i64
  %46 = getelementptr inbounds [100 x i8], [100 x i8]* %5, i64 0, i64 %45
  store i8 %42, i8* %46, align 1
  br label %21

47:                                               ; preds = %35
  %48 = load i32, i32* %7, align 4
  %49 = sext i32 %48 to i64
  %50 = getelementptr inbounds [100 x i8], [100 x i8]* %5, i64 0, i64 %49
  store i8 0, i8* %50, align 1
  %51 = getelementptr inbounds [100 x i8], [100 x i8]* %3, i64 0, i64 0
  %52 = getelementptr inbounds [100 x i8], [100 x i8]* %5, i64 0, i64 0
  %53 = call i32 @strcmp(i8* %51, i8* %52) #3
  %54 = icmp eq i32 %53, 0
  br i1 %54, label %55, label %58

55:                                               ; preds = %47
  %56 = getelementptr inbounds [100 x i8], [100 x i8]* %4, i64 0, i64 0
  %57 = call i32 (i8*, ...) @printf(i8* getelementptr inbounds ([3 x i8], [3 x i8]* @.str, i64 0, i64 0), i8* %56)
  br label %61

58:                                               ; preds = %47
  %59 = getelementptr inbounds [100 x i8], [100 x i8]* %5, i64 0, i64 0
  %60 = call i32 (i8*, ...) @printf(i8* getelementptr inbounds ([3 x i8], [3 x i8]* @.str, i64 0, i64 0), i8* %59)
  br label %61

61:                                               ; preds = %58, %55
  %62 = load i32, i32* %6, align 4
  %63 = sext i32 %62 to i64
  %64 = getelementptr inbounds [100 x i8], [100 x i8]* %2, i64 0, i64 0
  %65 = call i64 @strlen(i8* %64) #3
  %66 = icmp eq i64 %63, %65
  br i1 %66, label %67, label %69

67:                                               ; preds = %61
  %68 = call i32 (i8*, ...) @printf(i8* getelementptr inbounds ([2 x i8], [2 x i8]* @.str.1, i64 0, i64 0))
  br label %71

69:                                               ; preds = %61
  %70 = call i32 (i8*, ...) @printf(i8* getelementptr inbounds ([2 x i8], [2 x i8]* @.str.2, i64 0, i64 0))
  br label %71

71:                                               ; preds = %69, %67
  br label %72

72:                                               ; preds = %71
  %73 = load i32, i32* %6, align 4
  %74 = add nsw i32 %73, 1
  store i32 %74, i32* %6, align 4
  br label %14

75:                                               ; preds = %14
  ret i32 0
}

declare dso_local i32 @gets(...) #1

; Function Attrs: nounwind readonly
declare dso_local i64 @strlen(i8*) #2

; Function Attrs: nounwind readonly
declare dso_local i32 @strcmp(i8*, i8*) #2

declare dso_local i32 @printf(i8*, ...) #1


!llvm.module.flags = !{!0}
!llvm.ident = !{!1}

!0 = !{i32 1, !"wchar_size", i32 4}
!1 = !{!"clang version 10.0.0-4ubuntu1 "}
