; ModuleID = 'source-C-CXX/18/1667.c'
source_filename = "source-C-CXX/18/1667.c"
target datalayout = "e-m:e-p270:32:32-p271:32:32-p272:64:64-i64:64-f80:128-n8:16:32:64-S128"
target triple = "x86_64-pc-linux-gnu"

@.str = private unnamed_addr constant [3 x i8] c"%s\00", align 1

; Function Attrs: nounwind sspstrong uwtable
define dso_local i32 @main() local_unnamed_addr #0 {
  %1 = alloca [100 x i8], align 16
  %2 = alloca [100 x i8], align 16
  %3 = alloca [100 x i8], align 16
  %4 = alloca [100 x i8], align 16
  %5 = getelementptr inbounds [100 x i8], [100 x i8]* %1, i64 0, i64 0
  call void @llvm.lifetime.start.p0i8(i64 100, i8* nonnull %5) #6
  %6 = getelementptr inbounds [100 x i8], [100 x i8]* %2, i64 0, i64 0
  call void @llvm.lifetime.start.p0i8(i64 100, i8* nonnull %6) #6
  %7 = getelementptr inbounds [100 x i8], [100 x i8]* %3, i64 0, i64 0
  call void @llvm.lifetime.start.p0i8(i64 100, i8* nonnull %7) #6
  %8 = getelementptr inbounds [100 x i8], [100 x i8]* %4, i64 0, i64 0
  call void @llvm.lifetime.start.p0i8(i64 100, i8* nonnull %8) #6
  %9 = call i32 (i8*, ...) bitcast (i32 (...)* @gets to i32 (i8*, ...)*)(i8* nonnull %5) #6
  %10 = call i32 (i8*, ...) bitcast (i32 (...)* @gets to i32 (i8*, ...)*)(i8* nonnull %6) #6
  %11 = call i32 (i8*, ...) bitcast (i32 (...)* @gets to i32 (i8*, ...)*)(i8* nonnull %7) #6
  %12 = load i8, i8* %5, align 16
  %13 = icmp eq i8 %12, 0
  br i1 %13, label %43, label %14

14:                                               ; preds = %0, %38
  %15 = phi i32 [ %39, %38 ], [ 0, %0 ]
  %16 = sext i32 %15 to i64
  br label %17

17:                                               ; preds = %14, %22
  %18 = phi i64 [ 0, %14 ], [ %24, %22 ]
  %19 = phi i64 [ %16, %14 ], [ %23, %22 ]
  %20 = getelementptr inbounds [100 x i8], [100 x i8]* %1, i64 0, i64 %19
  %21 = load i8, i8* %20, align 1, !tbaa !5
  switch i8 %21, label %22 [
    i8 32, label %26
    i8 0, label %26
  ]

22:                                               ; preds = %17
  %23 = add i64 %19, 1
  %24 = add nuw i64 %18, 1
  %25 = getelementptr inbounds [100 x i8], [100 x i8]* %4, i64 0, i64 %18
  store i8 %21, i8* %25, align 1, !tbaa !5
  br label %17, !llvm.loop !8

26:                                               ; preds = %17, %17
  %27 = trunc i64 %19 to i32
  %28 = and i64 %18, 4294967295
  %29 = getelementptr inbounds [100 x i8], [100 x i8]* %4, i64 0, i64 %28
  store i8 0, i8* %29, align 1, !tbaa !5
  %30 = call i32 @strcmp(i8* noundef nonnull %6, i8* noundef nonnull %8) #7
  %31 = icmp eq i32 %30, 0
  %32 = select i1 %31, i8* %7, i8* %8
  %33 = call i32 (i8*, ...) @printf(i8* nonnull dereferenceable(1) getelementptr inbounds ([3 x i8], [3 x i8]* @.str, i64 0, i64 0), i8* nonnull %32)
  %34 = call i64 @strlen(i8* noundef nonnull %5) #7
  %35 = icmp eq i64 %34, %19
  br i1 %35, label %38, label %36

36:                                               ; preds = %26
  %37 = call i32 @putchar(i32 32)
  br label %38

38:                                               ; preds = %26, %36
  %39 = add nsw i32 %27, 1
  %40 = sext i32 %39 to i64
  %41 = call i64 @strlen(i8* noundef nonnull %5) #7
  %42 = icmp ugt i64 %41, %40
  br i1 %42, label %14, label %43, !llvm.loop !10

43:                                               ; preds = %38, %0
  call void @llvm.lifetime.end.p0i8(i64 100, i8* nonnull %8) #6
  call void @llvm.lifetime.end.p0i8(i64 100, i8* nonnull %7) #6
  call void @llvm.lifetime.end.p0i8(i64 100, i8* nonnull %6) #6
  call void @llvm.lifetime.end.p0i8(i64 100, i8* nonnull %5) #6
  ret i32 0
}

; Function Attrs: argmemonly mustprogress nofree nosync nounwind willreturn
declare void @llvm.lifetime.start.p0i8(i64 immarg, i8* nocapture) #1

declare i32 @gets(...) local_unnamed_addr #2

; Function Attrs: argmemonly mustprogress nofree nounwind readonly willreturn
declare i64 @strlen(i8* nocapture) local_unnamed_addr #3

; Function Attrs: argmemonly mustprogress nofree nounwind readonly willreturn
declare i32 @strcmp(i8* nocapture, i8* nocapture) local_unnamed_addr #3

; Function Attrs: nofree nounwind
declare noundef i32 @printf(i8* nocapture noundef readonly, ...) local_unnamed_addr #4

; Function Attrs: argmemonly mustprogress nofree nosync nounwind willreturn
declare void @llvm.lifetime.end.p0i8(i64 immarg, i8* nocapture) #1

; Function Attrs: nofree nounwind
declare noundef i32 @putchar(i32 noundef) local_unnamed_addr #5


!llvm.module.flags = !{!0, !1, !2, !3}
!llvm.ident = !{!4}

!0 = !{i32 1, !"wchar_size", i32 4}
!1 = !{i32 7, !"PIC Level", i32 2}
!2 = !{i32 7, !"PIE Level", i32 2}
!3 = !{i32 7, !"uwtable", i32 1}
!4 = !{!"clang version 13.0.0"}
!5 = !{!6, !6, i64 0}
!6 = !{!"omnipotent char", !7, i64 0}
!7 = !{!"Simple C/C++ TBAA"}
!8 = distinct !{!8, !9}
!9 = !{!"llvm.loop.mustprogress"}
!10 = distinct !{!10, !9}
